; Function Attrs: mustprogress uwtable
define noundef double @_ZNK6opencc13PhraseExtract3PMIERKNS_19UTF8StringSliceBaseIhEES4_S4_(ptr nocapture noundef nonnull readonly align 8 dereferenceable(256) %0, ptr noundef nonnull align 8 dereferenceable(10) %1, ptr noundef nonnull align 8 dereferenceable(10) %2, ptr noundef nonnull align 8 dereferenceable(10) %3) local_unnamed_addr #3 align 2 {
  %5 = getelementptr inbounds i8, ptr %0, i64 248
  %6 = load ptr, ptr %5, align 8
  %7 = tail call noundef nonnull align 8 dereferenceable(32) ptr @_ZN6opencc13PhraseExtract8DictType3GetERKNS_19UTF8StringSliceBaseIhEE(ptr noundef nonnull align 8 dereferenceable(112) %6, ptr noundef nonnull align 8 dereferenceable(10) %1)
  %8 = load i64, ptr %7, align 8
  %9 = uitofp i64 %8 to double
  %10 = tail call double @log(double noundef %9) #22
  %11 = getelementptr inbounds i8, ptr %0, i64 144
  %12 = load double, ptr %11, align 8
  %13 = fsub double %10, %12
  %14 = load ptr, ptr %5, align 8
  %15 = tail call noundef nonnull align 8 dereferenceable(32) ptr @_ZN6opencc13PhraseExtract8DictType3GetERKNS_19UTF8StringSliceBaseIhEE(ptr noundef nonnull align 8 dereferenceable(112) %14, ptr noundef nonnull align 8 dereferenceable(10) %2)
  %16 = load i64, ptr %15, align 8
  %17 = uitofp i64 %16 to double
  %18 = tail call double @log(double noundef %17) #22
  %19 = load double, ptr %11, align 8
  %20 = fsub double %18, %19
  %21 = fsub double %13, %20
  %22 = load ptr, ptr %5, align 8
  %23 = tail call noundef nonnull align 8 dereferenceable(32) ptr @_ZN6opencc13PhraseExtract8DictType3GetERKNS_19UTF8StringSliceBaseIhEE(ptr noundef nonnull align 8 dereferenceable(112) %22, ptr noundef nonnull align 8 dereferenceable(10) %3)
  %24 = load i64, ptr %23, align 8
  %25 = uitofp i64 %24 to double
  %26 = tail call double @log(double noundef %25) #22
  %27 = load double, ptr %11, align 8
  %28 = fsub double %26, %27
  %29 = fsub double %21, %28
  ret double %29
}